; ModuleID = '7/899.c'
source_filename = "7/899.c"
target datalayout = "e-m:e-p270:32:32-p271:32:32-p272:64:64-i64:64-f80:128-n8:16:32:64-S128"
target triple = "x86_64-pc-linux-gnu"

@.str = private unnamed_addr constant [7 x i8] c"%s%s%s\00", align 1
@.str.1 = private unnamed_addr constant [4 x i8] c"%s\0A\00", align 1

; Function Attrs: noinline nounwind uwtable
define dso_local void @main() #0 {
  %1 = alloca [500 x i8], align 16
  %2 = alloca [100 x i8], align 16
  %3 = alloca [100 x i8], align 16
  %4 = alloca i32, align 4
  %5 = alloca i32, align 4
  %6 = alloca i32, align 4
  %7 = alloca i32, align 4
  %8 = alloca i32, align 4
  %9 = alloca i32, align 4
  %10 = alloca i32, align 4
  %11 = getelementptr inbounds [500 x i8], [500 x i8]* %1, i64 0, i64 0
  %12 = getelementptr inbounds [100 x i8], [100 x i8]* %2, i64 0, i64 0
  %13 = getelementptr inbounds [100 x i8], [100 x i8]* %3, i64 0, i64 0
  %14 = call i32 (i8*, ...) @__isoc99_scanf(i8* getelementptr inbounds ([7 x i8], [7 x i8]* @.str, i64 0, i64 0), i8* %11, i8* %12, i8* %13)
  %15 = getelementptr inbounds [500 x i8], [500 x i8]* %1, i64 0, i64 0
  %16 = call i64 @strlen(i8* %15) #3
  %17 = trunc i64 %16 to i32
  store i32 %17, i32* %4, align 4
  %18 = getelementptr inbounds [100 x i8], [100 x i8]* %2, i64 0, i64 0
  %19 = call i64 @strlen(i8* %18) #3
  %20 = trunc i64 %19 to i32
  store i32 %20, i32* %5, align 4
  %21 = getelementptr inbounds [100 x i8], [100 x i8]* %3, i64 0, i64 0
  %22 = call i64 @strlen(i8* %21) #3
  %23 = trunc i64 %22 to i32
  store i32 %23, i32* %6, align 4
  store i32 0, i32* %7, align 4
  br label %24

24:                                               ; preds = %101, %0
  %25 = load i32, i32* %7, align 4
  %26 = load i32, i32* %4, align 4
  %27 = icmp slt i32 %25, %26
  br i1 %27, label %28, label %104

28:                                               ; preds = %24
  %29 = load i32, i32* %7, align 4
  %30 = sext i32 %29 to i64
  %31 = getelementptr inbounds [500 x i8], [500 x i8]* %1, i64 0, i64 %30
  %32 = load i8, i8* %31, align 1
  %33 = sext i8 %32 to i32
  %34 = getelementptr inbounds [100 x i8], [100 x i8]* %2, i64 0, i64 0
  %35 = load i8, i8* %34, align 16
  %36 = sext i8 %35 to i32
  %37 = icmp eq i32 %33, %36
  br i1 %37, label %38, label %92

38:                                               ; preds = %28
  store i32 0, i32* %8, align 4
  br label %39

39:                                               ; preds = %60, %38
  %40 = load i32, i32* %8, align 4
  %41 = load i32, i32* %5, align 4
  %42 = icmp slt i32 %40, %41
  br i1 %42, label %43, label %63

43:                                               ; preds = %39
  store i32 1, i32* %10, align 4
  %44 = load i32, i32* %7, align 4
  %45 = load i32, i32* %8, align 4
  %46 = add nsw i32 %44, %45
  %47 = sext i32 %46 to i64
  %48 = getelementptr inbounds [500 x i8], [500 x i8]* %1, i64 0, i64 %47
  %49 = load i8, i8* %48, align 1
  %50 = sext i8 %49 to i32
  %51 = load i32, i32* %8, align 4
  %52 = sext i32 %51 to i64
  %53 = getelementptr inbounds [100 x i8], [100 x i8]* %2, i64 0, i64 %52
  %54 = load i8, i8* %53, align 1
  %55 = sext i8 %54 to i32
  %56 = icmp ne i32 %50, %55
  br i1 %56, label %57, label %58

57:                                               ; preds = %43
  store i32 0, i32* %10, align 4
  br label %59

58:                                               ; preds = %43
  store i32 1, i32* %10, align 4
  br label %59

59:                                               ; preds = %58, %57
  br label %60

60:                                               ; preds = %59
  %61 = load i32, i32* %8, align 4
  %62 = add nsw i32 %61, 1
  store i32 %62, i32* %8, align 4
  br label %39

63:                                               ; preds = %39
  %64 = load i32, i32* %10, align 4
  %65 = icmp eq i32 %64, 1
  br i1 %65, label %66, label %85

66:                                               ; preds = %63
  store i32 0, i32* %9, align 4
  br label %67

67:                                               ; preds = %81, %66
  %68 = load i32, i32* %9, align 4
  %69 = load i32, i32* %6, align 4
  %70 = icmp slt i32 %68, %69
  br i1 %70, label %71, label %84

71:                                               ; preds = %67
  %72 = load i32, i32* %9, align 4
  %73 = sext i32 %72 to i64
  %74 = getelementptr inbounds [100 x i8], [100 x i8]* %3, i64 0, i64 %73
  %75 = load i8, i8* %74, align 1
  %76 = load i32, i32* %7, align 4
  %77 = load i32, i32* %9, align 4
  %78 = add nsw i32 %76, %77
  %79 = sext i32 %78 to i64
  %80 = getelementptr inbounds [500 x i8], [500 x i8]* %1, i64 0, i64 %79
  store i8 %75, i8* %80, align 1
  br label %81

81:                                               ; preds = %71
  %82 = load i32, i32* %9, align 4
  %83 = add nsw i32 %82, 1
  store i32 %83, i32* %9, align 4
  br label %67

84:                                               ; preds = %67
  br label %85

85:                                               ; preds = %84, %63
  %86 = load i32, i32* %10, align 4
  %87 = icmp eq i32 %86, 1
  br i1 %87, label %88, label %91

88:                                               ; preds = %85
  %89 = getelementptr inbounds [500 x i8], [500 x i8]* %1, i64 0, i64 0
  %90 = call i32 (i8*, ...) @printf(i8* getelementptr inbounds ([4 x i8], [4 x i8]* @.str.1, i64 0, i64 0), i8* %89)
  br label %104

91:                                               ; preds = %85
  br label %92

92:                                               ; preds = %91, %28
  %93 = load i32, i32* %7, align 4
  %94 = load i32, i32* %4, align 4
  %95 = sub nsw i32 %94, 1
  %96 = icmp eq i32 %93, %95
  br i1 %96, label %97, label %100

97:                                               ; preds = %92
  %98 = getelementptr inbounds [500 x i8], [500 x i8]* %1, i64 0, i64 0
  %99 = call i32 (i8*, ...) @printf(i8* getelementptr inbounds ([4 x i8], [4 x i8]* @.str.1, i64 0, i64 0), i8* %98)
  br label %100

100:                                              ; preds = %97, %92
  br label %101

101:                                              ; preds = %100
  %102 = load i32, i32* %7, align 4
  %103 = add nsw i32 %102, 1
  store i32 %103, i32* %7, align 4
  br label %24

104:                                              ; preds = %88, %24
  ret void
}

declare dso_local i32 @__isoc99_scanf(i8*, ...) #1

; Function Attrs: nounwind readonly
declare dso_local i64 @strlen(i8*) #2

declare dso_local i32 @printf(i8*, ...) #1


!llvm.module.flags = !{!0}
!llvm.ident = !{!1}

!0 = !{i32 1, !"wchar_size", i32 4}
!1 = !{!"clang version 10.0.0-4ubuntu1 "}
